; Function Attrs: mustprogress uwtable
define internal void @_ZN12_GLOBAL__N_115SynthXilinxPass11clear_flagsEv(ptr noundef nonnull align 8 dereferenceable(340) %0) unnamed_addr #4 align 2 {
  %2 = getelementptr inbounds i8, ptr %0, i64 184
  %3 = tail call noundef nonnull align 8 dereferenceable(32) ptr @_ZNSt7__cxx1112basic_stringIcSt11char_traitsIcESaIcEEaSEPKc(ptr noundef nonnull align 8 dereferenceable(32) %2, ptr noundef nonnull @.str.74)
  %4 = getelementptr inbounds i8, ptr %0, i64 216
  tail call void @_ZNSt7__cxx1112basic_stringIcSt11char_traitsIcESaIcEE5clearEv(ptr noundef nonnull align 8 dereferenceable(32) %4) #22
  %5 = getelementptr inbounds i8, ptr %0, i64 248
  tail call void @_ZNSt7__cxx1112basic_stringIcSt11char_traitsIcESaIcEE5clearEv(ptr noundef nonnull align 8 dereferenceable(32) %5) #22
  %6 = getelementptr inbounds i8, ptr %0, i64 280
  %7 = tail call noundef nonnull align 8 dereferenceable(32) ptr @_ZNSt7__cxx1112basic_stringIcSt11char_traitsIcESaIcEEaSEPKc(ptr noundef nonnull align 8 dereferenceable(32) %6, ptr noundef nonnull @.str.75)
  %8 = getelementptr inbounds i8, ptr %0, i64 312
  %9 = getelementptr inbounds i8, ptr %0, i64 328
  store i32 0, ptr %9, align 8
  %10 = getelementptr inbounds i8, ptr %0, i64 332
  tail call void @llvm.memset.p0.i64(ptr noundef nonnull align 8 dereferenceable(15) %8, i8 0, i64 15, i1 false)
  store i32 6, ptr %10, align 4
  ret void
}